target datalayout = "e-m:e-p270:32:32-p271:32:32-p272:64:64-i64:64-i128:128-f80:128-n8:16:32:64-S128"
target triple = "x86_64-pc-linux-gnu"

; Function Attrs: nounwind uwtable
define i32 @PKCS7_add_attrib_content_type(ptr noundef %0, ptr noundef %1) #0 {
  %3 = alloca i32, align 4
  %4 = alloca ptr, align 8
  %5 = alloca ptr, align 8
  store ptr %0, ptr %4, align 8, !tbaa !3
  store ptr %1, ptr %5, align 8, !tbaa !31
  %6 = load ptr, ptr %4, align 8, !tbaa !3
  %7 = call ptr @PKCS7_get_signed_attribute(ptr noundef %6, i32 noundef 50)
  %8 = icmp ne ptr %7, null
  br i1 %8, label %9, label %10

9:                                                ; preds = %2
  store i32 0, ptr %3, align 4
  br label %19

10:                                               ; preds = %2
  %11 = load ptr, ptr %5, align 8, !tbaa !31
  %12 = icmp ne ptr %11, null
  br i1 %12, label %15, label %13

13:                                               ; preds = %10
  %14 = call ptr @OBJ_nid2obj(i32 noundef 21)
  store ptr %14, ptr %5, align 8, !tbaa !31
  br label %15

15:                                               ; preds = %13, %10
  %16 = load ptr, ptr %4, align 8, !tbaa !3
  %17 = load ptr, ptr %5, align 8, !tbaa !31
  %18 = call i32 @PKCS7_add_signed_attribute(ptr noundef %16, i32 noundef 50, i32 noundef 6, ptr noundef %17)
  store i32 %18, ptr %3, align 4
  br label %19

19:                                               ; preds = %15, %9
  %20 = load i32, ptr %3, align 4
  ret i32 %20
}