; Function Attrs: nounwind uwtable
define i32 @PKCS7_add_attrib_content_type(ptr noundef %0, ptr noundef %1) local_unnamed_addr #0 {
  %3 = tail call ptr @PKCS7_get_signed_attribute(ptr noundef %0, i32 noundef 50) #3
  %.not = icmp eq ptr %3, null
  br i1 %.not, label %4, label %9

4:                                                ; preds = %2
  %.not6 = icmp eq ptr %1, null
  br i1 %.not6, label %5, label %7

5:                                                ; preds = %4
  %6 = tail call ptr @OBJ_nid2obj(i32 noundef 21) #3
  br label %7

7:                                                ; preds = %5, %4
  %.0 = phi ptr [ %1, %4 ], [ %6, %5 ]
  %8 = tail call i32 @PKCS7_add_signed_attribute(ptr noundef %0, i32 noundef 50, i32 noundef 6, ptr noundef %.0) #3
  br label %9

9:                                                ; preds = %2, %7
  %.04 = phi i32 [ %8, %7 ], [ 0, %2 ]
  ret i32 %.04
}